ccopy_reg
_reconstructor
p0
(cnltk.classify.decisiontree
DecisionTreeClassifier
p1
c__builtin__
object
p2
Ntp3
Rp4
(dp5
S'_fname'
p6
Vnot
p7
sS'_label'
p8
V4
p9
sS'_decisions'
p10
(dp11
Ng0
(g1
g2
Ntp12
Rp13
(dp14
g6
Vsad
p15
sg8
g9
sg10
(dp16
Ng0
(g1
g2
Ntp17
Rp18
(dp19
g6
Vsleep
p20
sg8
g9
sg10
(dp21
Ng0
(g1
g2
Ntp22
Rp23
(dp24
g6
Vmiss
p25
sg8
g9
sg10
(dp26
Ng0
(g1
g2
Ntp27
Rp28
(dp29
g6
Vbad
p30
sg8
g9
sg10
(dp31
Ng0
(g1
g2
Ntp32
Rp33
(dp34
g6
Vdon
p35
sg8
g9
sg10
(dp36
Ng0
(g1
g2
Ntp37
Rp38
(dp39
g6
Vnight
p40
sg8
g9
sg10
(dp41
Ng0
(g1
g2
Ntp42
Rp43
(dp44
g6
Vhate
p45
sg8
g9
sg10
(dp46
Ng0
(g1
g2
Ntp47
Rp48
(dp49
g6
Vsorry
p50
sg8
g9
sg10
(dp51
Ng0
(g1
g2
Ntp52
Rp53
(dp54
g6
Vfeel
p55
sg8
g9
sg10
(dp56
Ng0
(g1
g2
Ntp57
Rp58
(dp59
g6
Vneed
p60
sg8
g9
sg10
(dp61
Ng0
(g1
g2
Ntp62
Rp63
(dp64
g6
Vhome
p65
sg8
g9
sg10
(dp66
Ng0
(g1
g2
Ntp67
Rp68
(dp69
g6
Nsg8
V4
p70
sg10
NsS'_default'
p71
NsbsI01
g0
(g1
g2
Ntp72
Rp73
(dp74
g6
Nsg8
V0
p75
sg10
Nsg71
Nsbssg71
NsbsI01
g0
(g1
g2
Ntp76
Rp77
(dp78
g6
Vthanks
p79
sg8
V4
p80
sg10
(dp81
Ng0
(g1
g2
Ntp82
Rp83
(dp84
g6
Nsg8
V0
p85
sg10
Nsg71
NsbsI01
g0
(g1
g2
Ntp86
Rp87
(dp88
g6
Nsg8
V4
p89
sg10
Nsg71
Nsbssg71
Nsbssg71
NsbsI01
g0
(g1
g2
Ntp90
Rp91
(dp92
g6
Vlol
p93
sg8
V4
p94
sg10
(dp95
Ng0
(g1
g2
Ntp96
Rp97
(dp98
g6
Vdidn
p99
sg8
g94
sg10
(dp100
Ng0
(g1
g2
Ntp101
Rp102
(dp103
g6
Nsg8
V0
p104
sg10
Nsg71
NsbsI01
g0
(g1
g2
Ntp105
Rp106
(dp107
g6
Nsg8
g94
sg10
Nsg71
Nsbssg71
NsbsI01
g0
(g1
g2
Ntp108
Rp109
(dp110
g6
Nsg8
V4
p111
sg10
Nsg71
Nsbssg71
Nsbssg71
NsbsI01
g0
(g1
g2
Ntp112
Rp113
(dp114
g6
g55
sg8
V4
p115
sg10
(dp116
Ng0
(g1
g2
Ntp117
Rp118
(dp119
g6
Vone
p120
sg8
g115
sg10
(dp121
Ng0
(g1
g2
Ntp122
Rp123
(dp124
g6
g79
sg8
V4
p125
sg10
(dp126
Ng0
(g1
g2
Ntp127
Rp128
(dp129
g6
Nsg8
V0
p130
sg10
Nsg71
NsbsI01
g0
(g1
g2
Ntp131
Rp132
(dp133
g6
Nsg8
V4
p134
sg10
Nsg71
Nsbssg71
NsbsI01
g0
(g1
g2
Ntp135
Rp136
(dp137
g6
Nsg8
V4
p138
sg10
Nsg71
Nsbssg71
NsbsI01
g0
(g1
g2
Ntp139
Rp140
(dp141
g6
Nsg8
V4
p142
sg10
Nsg71
Nsbssg71
Nsbssg71
NsbsI01
g0
(g1
g2
Ntp143
Rp144
(dp145
g6
Vdown
p146
sg8
V4
p147
sg10
(dp148
Ng0
(g1
g2
Ntp149
Rp150
(dp151
g6
Nsg8
V0
p152
sg10
Nsg71
NsbsI01
g0
(g1
g2
Ntp153
Rp154
(dp155
g6
Nsg8
V4
p156
sg10
Nsg71
Nsbssg71
Nsbssg71
NsbsI01
g0
(g1
g2
Ntp157
Rp158
(dp159
g6
Vpeople
p160
sg8
V4
p161
sg10
(dp162
Ng0
(g1
g2
Ntp163
Rp164
(dp165
g6
g120
sg8
g161
sg10
(dp166
Ng0
(g1
g2
Ntp167
Rp168
(dp169
g6
Vright
p170
sg8
g161
sg10
(dp171
Ng0
(g1
g2
Ntp172
Rp173
(dp174
g6
Vwant
p175
sg8
g161
sg10
(dp176
Ng0
(g1
g2
Ntp177
Rp178
(dp179
g6
g45
sg8
V4
p180
sg10
(dp181
Ng0
(g1
g2
Ntp182
Rp183
(dp184
g6
Nsg8
V0
p185
sg10
Nsg71
NsbsI01
g0
(g1
g2
Ntp186
Rp187
(dp188
g6
Nsg8
V4
p189
sg10
Nsg71
Nsbssg71
NsbsI01
g0
(g1
g2
Ntp190
Rp191
(dp192
g6
Nsg8
g161
sg10
Nsg71
Nsbssg71
NsbsI01
g0
(g1
g2
Ntp193
Rp194
(dp195
g6
Nsg8
V4
p196
sg10
Nsg71
Nsbssg71
NsbsI01
g0
(g1
g2
Ntp197
Rp198
(dp199
g6
Nsg8
V4
p200
sg10
Nsg71
Nsbssg71
NsbsI01
g0
(g1
g2
Ntp201
Rp202
(dp203
g6
Nsg8
V4
p204
sg10
Nsg71
Nsbssg71
Nsbssg71
NsbsI01
g0
(g1
g2
Ntp205
Rp206
(dp207
g6
g160
sg8
V4
p208
sg10
(dp209
Ng0
(g1
g2
Ntp210
Rp211
(dp212
g6
Vtwitter
p213
sg8
g208
sg10
(dp214
Ng0
(g1
g2
Ntp215
Rp216
(dp217
g6
Vback
p218
sg8
g208
sg10
(dp219
Ng0
(g1
g2
Ntp220
Rp221
(dp222
g6
g146
sg8
g208
sg10
(dp223
Ng0
(g1
g2
Ntp224
Rp225
(dp226
g6
Vquot
p227
sg8
g208
sg10
(dp228
Ng0
(g1
g2
Ntp229
Rp230
(dp231
g6
g93
sg8
g208
sg10
(dp232
Ng0
(g1
g2
Ntp233
Rp234
(dp235
g6
Nsg8
V0
p236
sg10
Nsg71
NsbsI01
g0
(g1
g2
Ntp237
Rp238
(dp239
g6
Nsg8
V4
p240
sg10
Nsg71
Nsbssg71
NsbsI01
g0
(g1
g2
Ntp241
Rp242
(dp243
g6
Nsg8
V4
p244
sg10
Nsg71
Nsbssg71
NsbsI01
g0
(g1
g2
Ntp245
Rp246
(dp247
g6
Nsg8
V4
p248
sg10
Nsg71
Nsbssg71
NsbsI01
g0
(g1
g2
Ntp249
Rp250
(dp251
g6
Vget
p252
sg8
V4
p253
sg10
(dp254
Ng0
(g1
g2
Ntp255
Rp256
(dp257
g6
Nsg8
V4
p258
sg10
Nsg71
NsbsI01
g0
(g1
g2
Ntp259
Rp260
(dp261
g6
Nsg8
V0
p262
sg10
Nsg71
Nsbssg71
Nsbssg71
NsbsI01
g0
(g1
g2
Ntp263
Rp264
(dp265
g6
Nsg8
V4
p266
sg10
Nsg71
Nsbssg71
NsbsI01
g0
(g1
g2
Ntp267
Rp268
(dp269
g6
Nsg8
V4
p270
sg10
Nsg71
Nsbssg71
Nsbssg71
NsbsI01
g0
(g1
g2
Ntp271
Rp272
(dp273
g6
g35
sg8
V4
p274
sg10
(dp275
Ng0
(g1
g2
Ntp276
Rp277
(dp278
g6
Nsg8
V0
p279
sg10
Nsg71
NsbsI01
g0
(g1
g2
Ntp280
Rp281
(dp282
g6
Nsg8
V4
p283
sg10
Nsg71
Nsbssg71
Nsbssg71
NsbsI01
g0
(g1
g2
Ntp284
Rp285
(dp286
g6
Vgood
p287
sg8
V4
p288
sg10
(dp289
Ng0
(g1
g2
Ntp290
Rp291
(dp292
g6
Nsg8
V0
p293
sg10
Nsg71
NsbsI01
g0
(g1
g2
Ntp294
Rp295
(dp296
g6
Nsg8
V4
p297
sg10
Nsg71
Nsbssg71
Nsbssg71
NsbsI01
g0
(g1
g2
Ntp298
Rp299
(dp300
g6
Vweek
p301
sg8
V4
p302
sg10
(dp303
Ng0
(g1
g2
Ntp304
Rp305
(dp306
g6
Nsg8
V0
p307
sg10
Nsg71
NsbsI01
g0
(g1
g2
Ntp308
Rp309
(dp310
g6
Nsg8
g302
sg10
Nsg71
Nsbssg71
Nsbssg71
NsbsI01
g0
(g1
g2
Ntp311
Rp312
(dp313
g6
Nsg8
V0
p314
sg10
Nsg71
Nsbssg71
NsbsI01
g0
(g1
g2
Ntp315
Rp316
(dp317
g6
g79
sg8
V4
p318
sg10
(dp319
Ng0
(g1
g2
Ntp320
Rp321
(dp322
g6
g93
sg8
V4
p323
sg10
(dp324
Ng0
(g1
g2
Ntp325
Rp326
(dp327
g6
g65
sg8
V4
p328
sg10
(dp329
Ng0
(g1
g2
Ntp330
Rp331
(dp332
g6
Vhear
p333
sg8
g328
sg10
(dp334
Ng0
(g1
g2
Ntp335
Rp336
(dp337
g6
Vdays
p338
sg8
g328
sg10
(dp339
Ng0
(g1
g2
Ntp340
Rp341
(dp342
g6
Nsg8
V0
p343
sg10
Nsg71
NsbsI01
g0
(g1
g2
Ntp344
Rp345
(dp346
g6
g218
sg8
V4
p347
sg10
(dp348
Ng0
(g1
g2
Ntp349
Rp350
(dp351
g6
Nsg8
V4
p352
sg10
Nsg71
NsbsI01
g0
(g1
g2
Ntp353
Rp354
(dp355
g6
Nsg8
V0
p356
sg10
Nsg71
Nsbssg71
Nsbssg71
NsbsI01
g0
(g1
g2
Ntp357
Rp358
(dp359
g6
Nsg8
V4
p360
sg10
Nsg71
Nsbssg71
NsbsI01
g0
(g1
g2
Ntp361
Rp362
(dp363
g6
Nsg8
V4
p364
sg10
Nsg71
Nsbssg71
NsbsI01
g0
(g1
g2
Ntp365
Rp366
(dp367
g6
Nsg8
V4
p368
sg10
Nsg71
Nsbssg71
NsbsI01
g0
(g1
g2
Ntp369
Rp370
(dp371
g6
Nsg8
V4
p372
sg10
Nsg71
Nsbssg71
Nsbssg71
Nsb.